ccopy_reg
_reconstructor
p0
(cpacman.model.routing_tables.multicast_routing_table
MulticastRoutingTable
p1
c__builtin__
object
p2
Ntp3
Rp4
(dp5
S'_multicast_routing_entries'
p6
(lp7
g0
(cspinn_machine.multicast_routing_entry
MulticastRoutingEntry
p8
g2
Ntp9
Rp10
(dp11
S'_processor_ids'
p12
c__builtin__
set
p13
((lp14
tp15
Rp16
sS'_defaultable'
p17
I00
sS'_routing_key_entry'
p18
L6912L
sS'_link_ids'
p19
g13
((lp20
I3
atp21
Rp22
sS'_mask'
p23
I4294967040
sbag0
(g8
g2
Ntp24
Rp25
(dp26
g12
g13
((lp27
tp28
Rp29
sg17
I00
sg18
L3584L
sg19
g13
((lp30
I3
atp31
Rp32
sg23
I4294967040
sbag0
(g8
g2
Ntp33
Rp34
(dp35
g12
g13
((lp36
tp37
Rp38
sg17
I00
sg18
L5120L
sg19
g13
((lp39
I3
atp40
Rp41
sg23
I4294967040
sbag0
(g8
g2
Ntp42
Rp43
(dp44
g12
g13
((lp45
tp46
Rp47
sg17
I00
sg18
L4608L
sg19
g13
((lp48
I3
atp49
Rp50
sg23
I4294967040
sbag0
(g8
g2
Ntp51
Rp52
(dp53
g12
g13
((lp54
tp55
Rp56
sg17
I00
sg18
L6656L
sg19
g13
((lp57
I3
atp58
Rp59
sg23
I4294967040
sbag0
(g8
g2
Ntp60
Rp61
(dp62
g12
g13
((lp63
tp64
Rp65
sg17
I00
sg18
L5632L
sg19
g13
((lp66
I3
atp67
Rp68
sg23
I4294967040
sbag0
(g8
g2
Ntp69
Rp70
(dp71
g12
g13
((lp72
tp73
Rp74
sg17
I00
sg18
L3840L
sg19
g13
((lp75
I3
atp76
Rp77
sg23
I4294967040
sbag0
(g8
g2
Ntp78
Rp79
(dp80
g12
g13
((lp81
tp82
Rp83
sg17
I00
sg18
L6400L
sg19
g13
((lp84
I3
atp85
Rp86
sg23
I4294967040
sbag0
(g8
g2
Ntp87
Rp88
(dp89
g12
g13
((lp90
tp91
Rp92
sg17
I00
sg18
L7168L
sg19
g13
((lp93
I3
atp94
Rp95
sg23
I4294967040
sbag0
(g8
g2
Ntp96
Rp97
(dp98
g12
g13
((lp99
tp100
Rp101
sg17
I00
sg18
L4864L
sg19
g13
((lp102
I3
atp103
Rp104
sg23
I4294967040
sbag0
(g8
g2
Ntp105
Rp106
(dp107
g12
g13
((lp108
tp109
Rp110
sg17
I00
sg18
L4352L
sg19
g13
((lp111
I3
atp112
Rp113
sg23
I4294967040
sbag0
(g8
g2
Ntp114
Rp115
(dp116
g12
g13
((lp117
I1
aI2
aI3
aI4
aI5
aI6
aI7
aI8
aI9
aI10
aI11
aI12
aI13
aI14
aI15
aI16
atp118
Rp119
sg17
I00
sg18
I458752
sg19
g13
((lp120
I2
atp121
Rp122
sg23
I4294950912
sbag0
(g8
g2
Ntp123
Rp124
(dp125
g12
g13
((lp126
tp127
Rp128
sg17
I00
sg18
L5888L
sg19
g13
((lp129
I3
atp130
Rp131
sg23
I4294967040
sbag0
(g8
g2
Ntp132
Rp133
(dp134
g12
g13
((lp135
tp136
Rp137
sg17
I00
sg18
L7424L
sg19
g13
((lp138
I3
atp139
Rp140
sg23
I4294967040
sbag0
(g8
g2
Ntp141
Rp142
(dp143
g12
g13
((lp144
tp145
Rp146
sg17
I00
sg18
L6144L
sg19
g13
((lp147
I3
atp148
Rp149
sg23
I4294967040
sbag0
(g8
g2
Ntp150
Rp151
(dp152
g12
g13
((lp153
tp154
Rp155
sg17
I00
sg18
L5376L
sg19
g13
((lp156
I3
atp157
Rp158
sg23
I4294967040
sbag0
(g8
g2
Ntp159
Rp160
(dp161
g12
g13
((lp162
tp163
Rp164
sg17
I00
sg18
L4096L
sg19
g13
((lp165
I3
atp166
Rp167
sg23
I4294967040
sbasS'_multicast_routing_entries_by_routing_entry_key'
p168
ccollections
OrderedDict
p169
((lp170
(lp171
(L6912L
I4294967040
tp172
ag10
aa(lp173
(L3584L
I4294967040
tp174
ag25
aa(lp175
(L5120L
I4294967040
tp176
ag34
aa(lp177
(L4608L
I4294967040
tp178
ag43
aa(lp179
(L6656L
I4294967040
tp180
ag52
aa(lp181
(L5632L
I4294967040
tp182
ag61
aa(lp183
(L3840L
I4294967040
tp184
ag70
aa(lp185
(L6400L
I4294967040
tp186
ag79
aa(lp187
(L7168L
I4294967040
tp188
ag88
aa(lp189
(L4864L
I4294967040
tp190
ag97
aa(lp191
(L4352L
I4294967040
tp192
ag106
aa(lp193
(I458752
I4294950912
tp194
ag115
aa(lp195
(L5888L
I4294967040
tp196
ag124
aa(lp197
(L7424L
I4294967040
tp198
ag133
aa(lp199
(L6144L
I4294967040
tp200
ag142
aa(lp201
(L5376L
I4294967040
tp202
ag151
aa(lp203
(L4096L
I4294967040
tp204
ag160
aatp205
Rp206
sS'_y'
p207
I0
sS'_x'
p208
I1
sb.