ccopy_reg
_reconstructor
p0
(cpacman.model.routing_tables.multicast_routing_table
MulticastRoutingTable
p1
c__builtin__
object
p2
Ntp3
Rp4
(dp5
S'_multicast_routing_entries'
p6
(lp7
g0
(cspinn_machine.multicast_routing_entry
MulticastRoutingEntry
p8
g2
Ntp9
Rp10
(dp11
S'_processor_ids'
p12
c__builtin__
set
p13
((lp14
I2
atp15
Rp16
sS'_defaultable'
p17
I00
sS'_routing_key_entry'
p18
L3584L
sS'_link_ids'
p19
g13
((lp20
tp21
Rp22
sS'_mask'
p23
I4294967040
sbag0
(g8
g2
Ntp24
Rp25
(dp26
g12
g13
((lp27
I2
atp28
Rp29
sg17
I00
sg18
L6144L
sg19
g13
((lp30
tp31
Rp32
sg23
I4294967040
sbag0
(g8
g2
Ntp33
Rp34
(dp35
g12
g13
((lp36
I2
atp37
Rp38
sg17
I00
sg18
L7936L
sg19
g13
((lp39
tp40
Rp41
sg23
I4294967040
sbag0
(g8
g2
Ntp42
Rp43
(dp44
g12
g13
((lp45
I2
atp46
Rp47
sg17
I00
sg18
L4864L
sg19
g13
((lp48
tp49
Rp50
sg23
I4294967040
sbag0
(g8
g2
Ntp51
Rp52
(dp53
g12
g13
((lp54
I2
atp55
Rp56
sg17
I00
sg18
L0L
sg19
g13
((lp57
tp58
Rp59
sg23
I4294967040
sbag0
(g8
g2
Ntp60
Rp61
(dp62
g12
g13
((lp63
I2
atp64
Rp65
sg17
I00
sg18
L4096L
sg19
g13
((lp66
tp67
Rp68
sg23
I4294967040
sbag0
(g8
g2
Ntp69
Rp70
(dp71
g12
g13
((lp72
I2
atp73
Rp74
sg17
I00
sg18
L256L
sg19
g13
((lp75
tp76
Rp77
sg23
I4294967040
sbag0
(g8
g2
Ntp78
Rp79
(dp80
g12
g13
((lp81
I2
atp82
Rp83
sg17
I00
sg18
L9984L
sg19
g13
((lp84
tp85
Rp86
sg23
I4294967232
sbag0
(g8
g2
Ntp87
Rp88
(dp89
g12
g13
((lp90
I2
atp91
Rp92
sg17
I00
sg18
L4352L
sg19
g13
((lp93
tp94
Rp95
sg23
I4294967040
sbag0
(g8
g2
Ntp96
Rp97
(dp98
g12
g13
((lp99
I2
atp100
Rp101
sg17
I00
sg18
L7680L
sg19
g13
((lp102
tp103
Rp104
sg23
I4294967040
sbag0
(g8
g2
Ntp105
Rp106
(dp107
g12
g13
((lp108
I2
atp109
Rp110
sg17
I00
sg18
L512L
sg19
g13
((lp111
tp112
Rp113
sg23
I4294967040
sbag0
(g8
g2
Ntp114
Rp115
(dp116
g12
g13
((lp117
I2
atp118
Rp119
sg17
I00
sg18
L4608L
sg19
g13
((lp120
tp121
Rp122
sg23
I4294967040
sbag0
(g8
g2
Ntp123
Rp124
(dp125
g12
g13
((lp126
I2
atp127
Rp128
sg17
I00
sg18
L5632L
sg19
g13
((lp129
tp130
Rp131
sg23
I4294967040
sbag0
(g8
g2
Ntp132
Rp133
(dp134
g12
g13
((lp135
I2
atp136
Rp137
sg17
I00
sg18
L768L
sg19
g13
((lp138
tp139
Rp140
sg23
I4294967040
sbag0
(g8
g2
Ntp141
Rp142
(dp143
g12
g13
((lp144
I2
atp145
Rp146
sg17
I00
sg18
L8960L
sg19
g13
((lp147
tp148
Rp149
sg23
I4294967040
sbag0
(g8
g2
Ntp150
Rp151
(dp152
g12
g13
((lp153
I2
atp154
Rp155
sg17
I00
sg18
L8448L
sg19
g13
((lp156
tp157
Rp158
sg23
I4294967040
sbag0
(g8
g2
Ntp159
Rp160
(dp161
g12
g13
((lp162
I2
atp163
Rp164
sg17
I00
sg18
L1024L
sg19
g13
((lp165
tp166
Rp167
sg23
I4294967040
sbag0
(g8
g2
Ntp168
Rp169
(dp170
g12
g13
((lp171
I2
atp172
Rp173
sg17
I00
sg18
L5120L
sg19
g13
((lp174
tp175
Rp176
sg23
I4294967040
sbag0
(g8
g2
Ntp177
Rp178
(dp179
g12
g13
((lp180
I2
atp181
Rp182
sg17
I00
sg18
L1280L
sg19
g13
((lp183
tp184
Rp185
sg23
I4294967040
sbag0
(g8
g2
Ntp186
Rp187
(dp188
g12
g13
((lp189
I2
atp190
Rp191
sg17
I00
sg18
L5376L
sg19
g13
((lp192
tp193
Rp194
sg23
I4294967040
sbag0
(g8
g2
Ntp195
Rp196
(dp197
g12
g13
((lp198
I2
atp199
Rp200
sg17
I00
sg18
L9216L
sg19
g13
((lp201
tp202
Rp203
sg23
I4294967040
sbag0
(g8
g2
Ntp204
Rp205
(dp206
g12
g13
((lp207
I2
atp208
Rp209
sg17
I00
sg18
L1536L
sg19
g13
((lp210
tp211
Rp212
sg23
I4294967040
sbag0
(g8
g2
Ntp213
Rp214
(dp215
g12
g13
((lp216
I2
atp217
Rp218
sg17
I00
sg18
L9728L
sg19
g13
((lp219
tp220
Rp221
sg23
I4294967040
sbag0
(g8
g2
Ntp222
Rp223
(dp224
g12
g13
((lp225
I2
atp226
Rp227
sg17
I00
sg18
L1792L
sg19
g13
((lp228
tp229
Rp230
sg23
I4294967040
sbag0
(g8
g2
Ntp231
Rp232
(dp233
g12
g13
((lp234
I2
atp235
Rp236
sg17
I00
sg18
L5888L
sg19
g13
((lp237
tp238
Rp239
sg23
I4294967040
sbag0
(g8
g2
Ntp240
Rp241
(dp242
g12
g13
((lp243
I2
atp244
Rp245
sg17
I00
sg18
L3840L
sg19
g13
((lp246
tp247
Rp248
sg23
I4294967040
sbag0
(g8
g2
Ntp249
Rp250
(dp251
g12
g13
((lp252
I2
atp253
Rp254
sg17
I00
sg18
L2048L
sg19
g13
((lp255
tp256
Rp257
sg23
I4294967040
sbag0
(g8
g2
Ntp258
Rp259
(dp260
g12
g13
((lp261
I3
aI4
aI5
aI6
aI7
aI8
aI9
aI10
aI11
aI12
aI13
aI14
aI15
aI16
atp262
Rp263
sg17
I00
sg18
I458752
sg19
g13
((lp264
I0
atp265
Rp266
sg23
I4294950912
sbag0
(g8
g2
Ntp267
Rp268
(dp269
g12
g13
((lp270
I2
atp271
Rp272
sg17
I00
sg18
L2304L
sg19
g13
((lp273
tp274
Rp275
sg23
I4294967040
sbag0
(g8
g2
Ntp276
Rp277
(dp278
g12
g13
((lp279
I2
atp280
Rp281
sg17
I00
sg18
L6400L
sg19
g13
((lp282
tp283
Rp284
sg23
I4294967040
sbag0
(g8
g2
Ntp285
Rp286
(dp287
g12
g13
((lp288
I2
atp289
Rp290
sg17
I00
sg18
L8704L
sg19
g13
((lp291
tp292
Rp293
sg23
I4294967040
sbag0
(g8
g2
Ntp294
Rp295
(dp296
g12
g13
((lp297
I2
atp298
Rp299
sg17
I00
sg18
L2560L
sg19
g13
((lp300
tp301
Rp302
sg23
I4294967040
sbag0
(g8
g2
Ntp303
Rp304
(dp305
g12
g13
((lp306
I2
atp307
Rp308
sg17
I00
sg18
L6656L
sg19
g13
((lp309
tp310
Rp311
sg23
I4294967040
sbag0
(g8
g2
Ntp312
Rp313
(dp314
g12
g13
((lp315
I2
atp316
Rp317
sg17
I00
sg18
L2816L
sg19
g13
((lp318
tp319
Rp320
sg23
I4294967040
sbag0
(g8
g2
Ntp321
Rp322
(dp323
g12
g13
((lp324
I2
atp325
Rp326
sg17
I00
sg18
L6912L
sg19
g13
((lp327
tp328
Rp329
sg23
I4294967040
sbag0
(g8
g2
Ntp330
Rp331
(dp332
g12
g13
((lp333
I2
atp334
Rp335
sg17
I00
sg18
L9472L
sg19
g13
((lp336
tp337
Rp338
sg23
I4294967040
sbag0
(g8
g2
Ntp339
Rp340
(dp341
g12
g13
((lp342
I2
atp343
Rp344
sg17
I00
sg18
L3072L
sg19
g13
((lp345
tp346
Rp347
sg23
I4294967040
sbag0
(g8
g2
Ntp348
Rp349
(dp350
g12
g13
((lp351
I2
atp352
Rp353
sg17
I00
sg18
L7168L
sg19
g13
((lp354
tp355
Rp356
sg23
I4294967040
sbag0
(g8
g2
Ntp357
Rp358
(dp359
g12
g13
((lp360
I2
atp361
Rp362
sg17
I00
sg18
L3328L
sg19
g13
((lp363
tp364
Rp365
sg23
I4294967040
sbag0
(g8
g2
Ntp366
Rp367
(dp368
g12
g13
((lp369
I2
atp370
Rp371
sg17
I00
sg18
L7424L
sg19
g13
((lp372
tp373
Rp374
sg23
I4294967040
sbag0
(g8
g2
Ntp375
Rp376
(dp377
g12
g13
((lp378
I2
atp379
Rp380
sg17
I00
sg18
L8192L
sg19
g13
((lp381
tp382
Rp383
sg23
I4294967040
sbasS'_multicast_routing_entries_by_routing_entry_key'
p384
ccollections
OrderedDict
p385
((lp386
(lp387
(L3584L
I4294967040
tp388
ag10
aa(lp389
(L6144L
I4294967040
tp390
ag25
aa(lp391
(L7936L
I4294967040
tp392
ag34
aa(lp393
(L4864L
I4294967040
tp394
ag43
aa(lp395
(L0L
I4294967040
tp396
ag52
aa(lp397
(L4096L
I4294967040
tp398
ag61
aa(lp399
(L256L
I4294967040
tp400
ag70
aa(lp401
(L9984L
I4294967232
tp402
ag79
aa(lp403
(L4352L
I4294967040
tp404
ag88
aa(lp405
(L7680L
I4294967040
tp406
ag97
aa(lp407
(L512L
I4294967040
tp408
ag106
aa(lp409
(L4608L
I4294967040
tp410
ag115
aa(lp411
(L5632L
I4294967040
tp412
ag124
aa(lp413
(L768L
I4294967040
tp414
ag133
aa(lp415
(L8960L
I4294967040
tp416
ag142
aa(lp417
(L8448L
I4294967040
tp418
ag151
aa(lp419
(L1024L
I4294967040
tp420
ag160
aa(lp421
(L5120L
I4294967040
tp422
ag169
aa(lp423
(L1280L
I4294967040
tp424
ag178
aa(lp425
(L5376L
I4294967040
tp426
ag187
aa(lp427
(L9216L
I4294967040
tp428
ag196
aa(lp429
(L1536L
I4294967040
tp430
ag205
aa(lp431
(L9728L
I4294967040
tp432
ag214
aa(lp433
(L1792L
I4294967040
tp434
ag223
aa(lp435
(L5888L
I4294967040
tp436
ag232
aa(lp437
(L3840L
I4294967040
tp438
ag241
aa(lp439
(L2048L
I4294967040
tp440
ag250
aa(lp441
(I458752
I4294950912
tp442
ag259
aa(lp443
(L2304L
I4294967040
tp444
ag268
aa(lp445
(L6400L
I4294967040
tp446
ag277
aa(lp447
(L8704L
I4294967040
tp448
ag286
aa(lp449
(L2560L
I4294967040
tp450
ag295
aa(lp451
(L6656L
I4294967040
tp452
ag304
aa(lp453
(L2816L
I4294967040
tp454
ag313
aa(lp455
(L6912L
I4294967040
tp456
ag322
aa(lp457
(L9472L
I4294967040
tp458
ag331
aa(lp459
(L3072L
I4294967040
tp460
ag340
aa(lp461
(L7168L
I4294967040
tp462
ag349
aa(lp463
(L3328L
I4294967040
tp464
ag358
aa(lp465
(L7424L
I4294967040
tp466
ag367
aa(lp467
(L8192L
I4294967040
tp468
ag376
aatp469
Rp470
sS'_y'
p471
I0
sS'_x'
p472
I0
sb.