ccopy_reg
_reconstructor
p0
(cpacman.model.routing_tables.multicast_routing_table
MulticastRoutingTable
p1
c__builtin__
object
p2
Ntp3
Rp4
(dp5
S'_multicast_routing_entries'
p6
(lp7
g0
(cspinn_machine.multicast_routing_entry
MulticastRoutingEntry
p8
g2
Ntp9
Rp10
(dp11
S'_processor_ids'
p12
c__builtin__
set
p13
((lp14
tp15
Rp16
sS'_defaultable'
p17
I00
sS'_routing_key_entry'
p18
L7680L
sS'_link_ids'
p19
g13
((lp20
I4
atp21
Rp22
sS'_mask'
p23
I4294967040
sbag0
(g8
g2
Ntp24
Rp25
(dp26
g12
g13
((lp27
tp28
Rp29
sg17
I00
sg18
L8192L
sg19
g13
((lp30
I4
atp31
Rp32
sg23
I4294967040
sbag0
(g8
g2
Ntp33
Rp34
(dp35
g12
g13
((lp36
tp37
Rp38
sg17
I00
sg18
L9216L
sg19
g13
((lp39
I4
atp40
Rp41
sg23
I4294967040
sbag0
(g8
g2
Ntp42
Rp43
(dp44
g12
g13
((lp45
tp46
Rp47
sg17
I00
sg18
L9728L
sg19
g13
((lp48
I4
atp49
Rp50
sg23
I4294967040
sbag0
(g8
g2
Ntp51
Rp52
(dp53
g12
g13
((lp54
tp55
Rp56
sg17
I00
sg18
L7936L
sg19
g13
((lp57
I4
atp58
Rp59
sg23
I4294967040
sbag0
(g8
g2
Ntp60
Rp61
(dp62
g12
g13
((lp63
tp64
Rp65
sg17
I00
sg18
L8448L
sg19
g13
((lp66
I4
atp67
Rp68
sg23
I4294967040
sbag0
(g8
g2
Ntp69
Rp70
(dp71
g12
g13
((lp72
I1
aI2
aI3
aI4
aI5
aI6
aI7
aI8
aI9
aI10
atp73
Rp74
sg17
I00
sg18
I458752
sg19
g13
((lp75
tp76
Rp77
sg23
I4294950912
sbag0
(g8
g2
Ntp78
Rp79
(dp80
g12
g13
((lp81
tp82
Rp83
sg17
I00
sg18
L8960L
sg19
g13
((lp84
I4
atp85
Rp86
sg23
I4294967040
sbag0
(g8
g2
Ntp87
Rp88
(dp89
g12
g13
((lp90
tp91
Rp92
sg17
I00
sg18
L9984L
sg19
g13
((lp93
I4
atp94
Rp95
sg23
I4294967232
sbag0
(g8
g2
Ntp96
Rp97
(dp98
g12
g13
((lp99
tp100
Rp101
sg17
I00
sg18
L9472L
sg19
g13
((lp102
I4
atp103
Rp104
sg23
I4294967040
sbag0
(g8
g2
Ntp105
Rp106
(dp107
g12
g13
((lp108
tp109
Rp110
sg17
I00
sg18
L8704L
sg19
g13
((lp111
I4
atp112
Rp113
sg23
I4294967040
sbasS'_multicast_routing_entries_by_routing_entry_key'
p114
ccollections
OrderedDict
p115
((lp116
(lp117
(L7680L
I4294967040
tp118
ag10
aa(lp119
(L8192L
I4294967040
tp120
ag25
aa(lp121
(L9216L
I4294967040
tp122
ag34
aa(lp123
(L9728L
I4294967040
tp124
ag43
aa(lp125
(L7936L
I4294967040
tp126
ag52
aa(lp127
(L8448L
I4294967040
tp128
ag61
aa(lp129
(I458752
I4294950912
tp130
ag70
aa(lp131
(L8960L
I4294967040
tp132
ag79
aa(lp133
(L9984L
I4294967232
tp134
ag88
aa(lp135
(L9472L
I4294967040
tp136
ag97
aa(lp137
(L8704L
I4294967040
tp138
ag106
aatp139
Rp140
sS'_y'
p141
I1
sS'_x'
p142
I1
sb.